; Function Attrs: inlinehint nounwind uwtable
define internal fastcc zeroext range(i8 0, 2) i8 @lean_int_dec_lt(ptr noundef %0, ptr noundef %1) unnamed_addr #0 {
  %3 = ptrtoint ptr %0 to i64
  %4 = and i64 %3, 1
  %.not.i = icmp eq i64 %4, 0
  br i1 %.not.i, label %.critedge.i, label %5, !prof !4

5:                                                ; preds = %2
  %6 = ptrtoint ptr %1 to i64
  %7 = and i64 %6, 1
  %.not7.i = icmp eq i64 %7, 0
  br i1 %.not7.i, label %.critedge.i, label %8, !prof !4

8:                                                ; preds = %5
  %9 = lshr i64 %3, 1
  %10 = trunc i64 %9 to i32
  %11 = lshr i64 %6, 1
  %12 = trunc i64 %11 to i32
  %13 = icmp slt i32 %10, %12
  br label %lean_int_lt.exit

.critedge.i:                                      ; preds = %5, %2
  %14 = tail call zeroext i1 @lean_int_big_lt(ptr noundef %0, ptr noundef %1) #6
  br label %lean_int_lt.exit

lean_int_lt.exit:                                 ; preds = %8, %.critedge.i
  %.0.i = phi i1 [ %13, %8 ], [ %14, %.critedge.i ]
  %15 = zext i1 %.0.i to i8
  ret i8 %15
}